target datalayout = "e-m:e-p270:32:32-p271:32:32-p272:64:64-i64:64-i128:128-f80:128-n8:16:32:64-S128"
target triple = "x86_64-pc-linux-gnu"

%"class.std::__cxx11::basic_string" = type { %"struct.std::__cxx11::basic_string<char>::_Alloc_hider", i64, %union.anon }
%"struct.std::__cxx11::basic_string<char>::_Alloc_hider" = type { ptr }
%union.anon = type { i64, [8 x i8] }
%"class.std::recursive_mutex" = type { %"class.std::__recursive_mutex_base" }
%"class.std::__recursive_mutex_base" = type { %union.pthread_mutex_t }
%union.pthread_mutex_t = type { %struct.__pthread_mutex_s }
%struct.__pthread_mutex_s = type { i32, i32, i32, i32, i32, i16, i16, %struct.__pthread_internal_list }
%struct.__pthread_internal_list = type { ptr, ptr }
%"class.cv::instr::NodeData" = type <{ %"class.std::__cxx11::basic_string", i32, i32, ptr, i32, [4 x i8], ptr, i8, i8, [2 x i8], i32, i64, %"class.cv::TLSDataAccumulator", i32, [4 x i8] }>
%"class.cv::TLSDataAccumulator" = type <{ %"class.cv::TLSData.base.21", [4 x i8], %"class.std::recursive_mutex", %"class.std::vector.22", %"class.std::vector.22", i8, [7 x i8] }>
%"class.cv::TLSData.base.21" = type { %"class.cv::TLSDataContainer.base" }
%"class.cv::TLSDataContainer.base" = type <{ ptr, i32 }>
%"class.std::vector.22" = type { %"struct.std::_Vector_base.23" }
%"struct.std::_Vector_base.23" = type { %"struct.std::_Vector_base<cv::instr::NodeDataTls *, std::allocator<cv::instr::NodeDataTls *>>::_Vector_impl" }
%"struct.std::_Vector_base<cv::instr::NodeDataTls *, std::allocator<cv::instr::NodeDataTls *>>::_Vector_impl" = type { %"struct.std::_Vector_base<cv::instr::NodeDataTls *, std::allocator<cv::instr::NodeDataTls *>>::_Vector_impl_data" }
%"struct.std::_Vector_base<cv::instr::NodeDataTls *, std::allocator<cv::instr::NodeDataTls *>>::_Vector_impl_data" = type { ptr, ptr, ptr }

; Function Attrs: mustprogress uwtable
define available_externally noundef nonnull align 8 dereferenceable(32) ptr @_ZNSt7__cxx1112basic_stringIcSt11char_traitsIcESaIcEE6assignERKS4_(ptr noundef nonnull align 8 dereferenceable(32) %0, ptr noundef nonnull align 8 dereferenceable(32) %1) #4 align 2 {
  %3 = alloca ptr, align 8
  %4 = alloca ptr, align 8
  store ptr %0, ptr %3, align 8, !tbaa !27
  store ptr %1, ptr %4, align 8, !tbaa !27
  %5 = load ptr, ptr %3, align 8
  %6 = load ptr, ptr %4, align 8, !tbaa !27
  call void @_ZNSt7__cxx1112basic_stringIcSt11char_traitsIcESaIcEE9_M_assignERKS4_(ptr noundef nonnull align 8 dereferenceable(32) %5, ptr noundef nonnull align 8 dereferenceable(32) %6)
  ret ptr %5
}

; Function Attrs: mustprogress uwtable
define available_externally noundef nonnull align 8 dereferenceable(32) ptr @_ZNSt7__cxx1112basic_stringIcSt11char_traitsIcESaIcEEaSERKS4_(ptr noundef nonnull align 8 dereferenceable(32) %0, ptr noundef nonnull align 8 dereferenceable(32) %1) #4 align 2 {
  %3 = alloca ptr, align 8
  %4 = alloca ptr, align 8
  store ptr %0, ptr %3, align 8, !tbaa !27
  store ptr %1, ptr %4, align 8, !tbaa !27
  %5 = load ptr, ptr %3, align 8
  %6 = load ptr, ptr %4, align 8, !tbaa !27
  %7 = call noundef nonnull align 8 dereferenceable(32) ptr @_ZNSt7__cxx1112basic_stringIcSt11char_traitsIcESaIcEE6assignERKS4_(ptr noundef nonnull align 8 dereferenceable(32) %5, ptr noundef nonnull align 8 dereferenceable(32) %6)
  ret ptr %7
}

; Function Attrs: mustprogress uwtable
define noundef nonnull align 8 dereferenceable(196) ptr @_ZN2cv5instr8NodeDataaSERKS1_(ptr noundef nonnull align 8 dereferenceable(196) %0, ptr noundef nonnull align 8 dereferenceable(196) %1) #4 align 2 {
  %3 = alloca ptr, align 8
  %4 = alloca ptr, align 8
  store ptr %0, ptr %3, align 8, !tbaa !162
  store ptr %1, ptr %4, align 8, !tbaa !162
  %5 = load ptr, ptr %3, align 8
  %6 = load ptr, ptr %4, align 8, !tbaa !162
  %7 = getelementptr inbounds nuw %"class.cv::instr::NodeData", ptr %6, i32 0, i32 0
  %8 = getelementptr inbounds nuw %"class.cv::instr::NodeData", ptr %5, i32 0, i32 0
  %9 = call noundef nonnull align 8 dereferenceable(32) ptr @_ZNSt7__cxx1112basic_stringIcSt11char_traitsIcESaIcEEaSERKS4_(ptr noundef nonnull align 8 dereferenceable(32) %8, ptr noundef nonnull align 8 dereferenceable(32) %7)
  %10 = load ptr, ptr %4, align 8, !tbaa !162
  %11 = getelementptr inbounds nuw %"class.cv::instr::NodeData", ptr %10, i32 0, i32 1
  %12 = load i32, ptr %11, align 8, !tbaa !168
  %13 = getelementptr inbounds nuw %"class.cv::instr::NodeData", ptr %5, i32 0, i32 1
  store i32 %12, ptr %13, align 8, !tbaa !168
  %14 = load ptr, ptr %4, align 8, !tbaa !162
  %15 = getelementptr inbounds nuw %"class.cv::instr::NodeData", ptr %14, i32 0, i32 2
  %16 = load i32, ptr %15, align 4, !tbaa !177
  %17 = getelementptr inbounds nuw %"class.cv::instr::NodeData", ptr %5, i32 0, i32 2
  store i32 %16, ptr %17, align 4, !tbaa !177
  %18 = load ptr, ptr %4, align 8, !tbaa !162
  %19 = getelementptr inbounds nuw %"class.cv::instr::NodeData", ptr %18, i32 0, i32 3
  %20 = load ptr, ptr %19, align 8, !tbaa !178
  %21 = getelementptr inbounds nuw %"class.cv::instr::NodeData", ptr %5, i32 0, i32 3
  store ptr %20, ptr %21, align 8, !tbaa !178
  %22 = load ptr, ptr %4, align 8, !tbaa !162
  %23 = getelementptr inbounds nuw %"class.cv::instr::NodeData", ptr %22, i32 0, i32 4
  %24 = load i32, ptr %23, align 8, !tbaa !179
  %25 = getelementptr inbounds nuw %"class.cv::instr::NodeData", ptr %5, i32 0, i32 4
  store i32 %24, ptr %25, align 8, !tbaa !179
  %26 = load ptr, ptr %4, align 8, !tbaa !162
  %27 = getelementptr inbounds nuw %"class.cv::instr::NodeData", ptr %26, i32 0, i32 6
  %28 = load ptr, ptr %27, align 8, !tbaa !180
  %29 = getelementptr inbounds nuw %"class.cv::instr::NodeData", ptr %5, i32 0, i32 6
  store ptr %28, ptr %29, align 8, !tbaa !180
  %30 = load ptr, ptr %4, align 8, !tbaa !162
  %31 = getelementptr inbounds nuw %"class.cv::instr::NodeData", ptr %30, i32 0, i32 7
  %32 = load i8, ptr %31, align 8, !tbaa !181, !range !30, !noundef !31
  %33 = trunc i8 %32 to i1
  %34 = getelementptr inbounds nuw %"class.cv::instr::NodeData", ptr %5, i32 0, i32 7
  %35 = zext i1 %33 to i8
  store i8 %35, ptr %34, align 8, !tbaa !181
  %36 = load ptr, ptr %4, align 8, !tbaa !162
  %37 = getelementptr inbounds nuw %"class.cv::instr::NodeData", ptr %36, i32 0, i32 13
  %38 = load i32, ptr %37, align 8, !tbaa !182
  %39 = getelementptr inbounds nuw %"class.cv::instr::NodeData", ptr %5, i32 0, i32 13
  store i32 %38, ptr %39, align 8, !tbaa !182
  %40 = load ptr, ptr %4, align 8, !tbaa !162
  %41 = getelementptr inbounds nuw %"class.cv::instr::NodeData", ptr %40, i32 0, i32 10
  %42 = load volatile i32, ptr %41, align 4, !tbaa !183
  %43 = getelementptr inbounds nuw %"class.cv::instr::NodeData", ptr %5, i32 0, i32 10
  store volatile i32 %42, ptr %43, align 4, !tbaa !183
  %44 = load ptr, ptr %4, align 8, !tbaa !162
  %45 = getelementptr inbounds nuw %"class.cv::instr::NodeData", ptr %44, i32 0, i32 11
  %46 = load volatile i64, ptr %45, align 8, !tbaa !184
  %47 = getelementptr inbounds nuw %"class.cv::instr::NodeData", ptr %5, i32 0, i32 11
  store volatile i64 %46, ptr %47, align 8, !tbaa !184
  %48 = load ptr, ptr %4, align 8, !tbaa !162
  %49 = getelementptr inbounds nuw %"class.cv::instr::NodeData", ptr %48, i32 0, i32 8
  %50 = load i8, ptr %49, align 1, !tbaa !185, !range !30, !noundef !31
  %51 = trunc i8 %50 to i1
  %52 = getelementptr inbounds nuw %"class.cv::instr::NodeData", ptr %5, i32 0, i32 8
  %53 = zext i1 %51 to i8
  store i8 %53, ptr %52, align 1, !tbaa !185
  ret ptr %5
}