; Function Attrs: mustprogress uwtable
define noundef nonnull align 8 dereferenceable(196) ptr @_ZN2cv5instr8NodeDataaSERKS1_(ptr noundef nonnull returned align 8 dereferenceable(196) %0, ptr noundef nonnull align 8 dereferenceable(196) %1) local_unnamed_addr #3 align 2 {
  tail call void @_ZNSt7__cxx1112basic_stringIcSt11char_traitsIcESaIcEE9_M_assignERKS4_(ptr noundef nonnull align 8 dereferenceable(32) %0, ptr noundef nonnull align 8 dereferenceable(32) %1)
  %3 = getelementptr inbounds nuw i8, ptr %1, i64 32
  %4 = load i32, ptr %3, align 8, !tbaa !191
  %5 = getelementptr inbounds nuw i8, ptr %0, i64 32
  store i32 %4, ptr %5, align 8, !tbaa !191
  %6 = getelementptr inbounds nuw i8, ptr %1, i64 36
  %7 = load i32, ptr %6, align 4, !tbaa !202
  %8 = getelementptr inbounds nuw i8, ptr %0, i64 36
  store i32 %7, ptr %8, align 4, !tbaa !202
  %9 = getelementptr inbounds nuw i8, ptr %1, i64 40
  %10 = load ptr, ptr %9, align 8, !tbaa !203
  %11 = getelementptr inbounds nuw i8, ptr %0, i64 40
  store ptr %10, ptr %11, align 8, !tbaa !203
  %12 = getelementptr inbounds nuw i8, ptr %1, i64 48
  %13 = load i32, ptr %12, align 8, !tbaa !204
  %14 = getelementptr inbounds nuw i8, ptr %0, i64 48
  store i32 %13, ptr %14, align 8, !tbaa !204
  %15 = getelementptr inbounds nuw i8, ptr %1, i64 56
  %16 = load ptr, ptr %15, align 8, !tbaa !205
  %17 = getelementptr inbounds nuw i8, ptr %0, i64 56
  store ptr %16, ptr %17, align 8, !tbaa !205
  %18 = getelementptr inbounds nuw i8, ptr %1, i64 64
  %19 = load i8, ptr %18, align 8, !tbaa !206, !range !80, !noundef !81
  %20 = getelementptr inbounds nuw i8, ptr %0, i64 64
  store i8 %19, ptr %20, align 8, !tbaa !206
  %21 = getelementptr inbounds nuw i8, ptr %1, i64 192
  %22 = load i32, ptr %21, align 8, !tbaa !207
  %23 = getelementptr inbounds nuw i8, ptr %0, i64 192
  store i32 %22, ptr %23, align 8, !tbaa !207
  %24 = getelementptr inbounds nuw i8, ptr %1, i64 68
  %25 = load volatile i32, ptr %24, align 4, !tbaa !208
  %26 = getelementptr inbounds nuw i8, ptr %0, i64 68
  store volatile i32 %25, ptr %26, align 4, !tbaa !208
  %27 = getelementptr inbounds nuw i8, ptr %1, i64 72
  %28 = load volatile i64, ptr %27, align 8, !tbaa !209
  %29 = getelementptr inbounds nuw i8, ptr %0, i64 72
  store volatile i64 %28, ptr %29, align 8, !tbaa !209
  %30 = getelementptr inbounds nuw i8, ptr %1, i64 65
  %31 = load i8, ptr %30, align 1, !tbaa !210, !range !80, !noundef !81
  %32 = getelementptr inbounds nuw i8, ptr %0, i64 65
  store i8 %31, ptr %32, align 1, !tbaa !210
  ret ptr %0
}